; Function Attrs: null_pointer_is_valid sspstrong uwtable
define internal i32 @wkssvc_dissect_element_ComputerNamesCtr_computer_name__(ptr noundef %0, i32 noundef %1, ptr noundef %2, ptr noundef %3, ptr noundef %4, ptr noundef %5) #0 {
  %7 = alloca ptr, align 8
  %8 = load i32, ptr @hf_wkssvc_wkssvc_ComputerNamesCtr_computer_name, align 4
  call void @llvm.lifetime.start.p0(i64 8, ptr nonnull %7) #3
  store ptr null, ptr %7, align 8
  %9 = getelementptr inbounds nuw i8, ptr %4, i64 25
  %10 = load i8, ptr %9, align 1, !range !6, !noundef !7
  %11 = trunc nuw i8 %10 to i1
  %12 = and i32 %1, 3
  %.not.i = icmp eq i32 %12, 0
  %or.cond.i = or i1 %.not.i, %11
  %13 = and i32 %1, -4
  %14 = add i32 %13, 4
  %.0.i = select i1 %or.cond.i, i32 %1, i32 %14
  %15 = tail call ptr @proto_registrar_get_nth(i32 noundef %8)
  %.not35.i = icmp eq ptr %3, null
  br i1 %.not35.i, label %cnf_dissect_lsa_String.exit, label %16

16:                                               ; preds = %6
  %17 = load i32, ptr @ett_wkssvc_lsa_String, align 4
  %18 = load ptr, ptr %15, align 8
  %19 = call ptr (ptr, ptr, i32, i32, i32, ptr, ptr, ...) @proto_tree_add_subtree_format(ptr noundef nonnull %3, ptr noundef %0, i32 noundef %.0.i, i32 noundef 0, i32 noundef %17, ptr noundef nonnull %7, ptr noundef nonnull @.str.627, ptr noundef %18)
  br label %cnf_dissect_lsa_String.exit

cnf_dissect_lsa_String.exit:                      ; preds = %6, %16
  %.033.i = phi ptr [ %19, %16 ], [ null, %6 ]
  %20 = load i32, ptr @hf_wkssvc_lsa_String_name_len, align 4
  %21 = call i32 @PIDL_dissect_uint16(ptr noundef %0, i32 noundef %.0.i, ptr noundef %2, ptr noundef %.033.i, ptr noundef %4, ptr noundef %5, i32 noundef %20, i32 noundef 0)
  %22 = load i32, ptr @hf_wkssvc_lsa_String_name_size, align 4
  %23 = call i32 @PIDL_dissect_uint16(ptr noundef %0, i32 noundef %21, ptr noundef %2, ptr noundef %.033.i, ptr noundef %4, ptr noundef %5, i32 noundef %22, i32 noundef 0)
  %24 = load ptr, ptr %15, align 8
  %25 = call i32 @dissect_ndr_pointer_cb(ptr noundef %0, i32 noundef %23, ptr noundef %2, ptr noundef %.033.i, ptr noundef %4, ptr noundef %5, ptr noundef nonnull @dissect_ndr_wchar_cvstring, i32 noundef 2, ptr noundef %24, i32 noundef %8, ptr noundef nonnull @cb_wstr_postprocess, ptr noundef null)
  %26 = load ptr, ptr %7, align 8
  %27 = sub i32 %25, %.0.i
  call void @proto_item_set_len(ptr noundef %26, i32 noundef %27)
  call void @llvm.lifetime.end.p0(i64 8, ptr nonnull %7) #3
  ret i32 %25
}